target datalayout = "e-m:e-p270:32:32-p271:32:32-p272:64:64-i64:64-i128:128-f80:128-n8:16:32:64-S128"
target triple = "x86_64-pc-linux-gnu"

%struct._protocol = type { ptr, ptr, ptr, ptr, i32, i8, i8, i8, i32, ptr }

@gpa_protocol_aliases = internal global ptr null, align 8

; Function Attrs: null_pointer_is_valid sspstrong uwtable
define void @proto_register_alias(i32 noundef %0, ptr noundef %1) #0 {
  %3 = alloca i32, align 4
  %4 = alloca ptr, align 8
  %5 = alloca ptr, align 8
  store i32 %0, ptr %3, align 4
  store ptr %1, ptr %4, align 8
  call void @llvm.lifetime.start.p0(i64 8, ptr %5) #24
  %6 = load i32, ptr %3, align 4
  %7 = call ptr @find_protocol_by_id(i32 noundef %6)
  store ptr %7, ptr %5, align 8
  %8 = load ptr, ptr %4, align 8
  %9 = icmp ne ptr %8, null
  br i1 %9, label %10, label %20

10:                                               ; preds = %2
  %11 = load ptr, ptr %5, align 8
  %12 = icmp ne ptr %11, null
  br i1 %12, label %13, label %20

13:                                               ; preds = %10
  %14 = load ptr, ptr @gpa_protocol_aliases, align 8
  %15 = load ptr, ptr %4, align 8
  %16 = load ptr, ptr %5, align 8
  %17 = getelementptr inbounds nuw %struct._protocol, ptr %16, i32 0, i32 2
  %18 = load ptr, ptr %17, align 8
  %19 = call i32 @g_hash_table_insert(ptr noundef %14, ptr noundef %15, ptr noundef %18)
  br label %20

20:                                               ; preds = %13, %10, %2
  call void @llvm.lifetime.end.p0(i64 8, ptr %5) #24
  ret void
}