; Function Attrs: null_pointer_is_valid sspstrong uwtable
define void @proto_register_alias(i32 noundef %0, ptr noundef %1) local_unnamed_addr #0 {
  %3 = tail call ptr @find_protocol_by_id(i32 noundef %0)
  %4 = icmp ne ptr %1, null
  %5 = icmp ne ptr %3, null
  %or.cond = select i1 %4, i1 %5, i1 false
  br i1 %or.cond, label %6, label %11

6:                                                ; preds = %2
  %7 = load ptr, ptr @gpa_protocol_aliases, align 8
  %8 = getelementptr inbounds nuw i8, ptr %3, i64 16
  %9 = load ptr, ptr %8, align 8
  %10 = tail call i32 @g_hash_table_insert(ptr noundef %7, ptr noundef nonnull %1, ptr noundef %9)
  br label %11

11:                                               ; preds = %6, %2
  ret void
}